target datalayout = "e-m:e-p270:32:32-p271:32:32-p272:64:64-i64:64-i128:128-f80:128-n8:16:32:64-S128"
target triple = "x86_64-pc-linux-gnu"

%struct.AVFilterContext = type { ptr, ptr, ptr, ptr, ptr, i32, ptr, ptr, i32, ptr, ptr, i32, i32, ptr, ptr, ptr, ptr, i32, ptr, i32, i32 }
%struct.AudioXCorrelateContext = type { ptr, i32, i32, i64, [2 x ptr], [2 x ptr], [2 x ptr], ptr, [2 x ptr], i32, i32, ptr }

; Function Attrs: cold nounwind optsize uwtable
define internal void @uninit(ptr noundef %0) #0 {
  %2 = alloca ptr, align 8
  %3 = alloca ptr, align 8
  store ptr %0, ptr %2, align 8, !tbaa !4
  call void @llvm.lifetime.start.p0(i64 8, ptr %3) #7
  %4 = load ptr, ptr %2, align 8, !tbaa !4
  %5 = getelementptr inbounds nuw %struct.AVFilterContext, ptr %4, i32 0, i32 9
  %6 = load ptr, ptr %5, align 8, !tbaa !9
  store ptr %6, ptr %3, align 8, !tbaa !22
  %7 = load ptr, ptr %3, align 8, !tbaa !22
  %8 = getelementptr inbounds nuw %struct.AudioXCorrelateContext, ptr %7, i32 0, i32 4
  %9 = getelementptr inbounds [2 x ptr], ptr %8, i64 0, i64 0
  %10 = load ptr, ptr %9, align 8, !tbaa !24
  call void @av_audio_fifo_free(ptr noundef %10)
  %11 = load ptr, ptr %3, align 8, !tbaa !22
  %12 = getelementptr inbounds nuw %struct.AudioXCorrelateContext, ptr %11, i32 0, i32 4
  %13 = getelementptr inbounds [2 x ptr], ptr %12, i64 0, i64 1
  %14 = load ptr, ptr %13, align 8, !tbaa !24
  call void @av_audio_fifo_free(ptr noundef %14)
  %15 = load ptr, ptr %3, align 8, !tbaa !22
  %16 = getelementptr inbounds nuw %struct.AudioXCorrelateContext, ptr %15, i32 0, i32 5
  %17 = getelementptr inbounds [2 x ptr], ptr %16, i64 0, i64 0
  call void @av_frame_free(ptr noundef %17)
  %18 = load ptr, ptr %3, align 8, !tbaa !22
  %19 = getelementptr inbounds nuw %struct.AudioXCorrelateContext, ptr %18, i32 0, i32 5
  %20 = getelementptr inbounds [2 x ptr], ptr %19, i64 0, i64 1
  call void @av_frame_free(ptr noundef %20)
  %21 = load ptr, ptr %3, align 8, !tbaa !22
  %22 = getelementptr inbounds nuw %struct.AudioXCorrelateContext, ptr %21, i32 0, i32 6
  %23 = getelementptr inbounds [2 x ptr], ptr %22, i64 0, i64 0
  call void @av_frame_free(ptr noundef %23)
  %24 = load ptr, ptr %3, align 8, !tbaa !22
  %25 = getelementptr inbounds nuw %struct.AudioXCorrelateContext, ptr %24, i32 0, i32 6
  %26 = getelementptr inbounds [2 x ptr], ptr %25, i64 0, i64 1
  call void @av_frame_free(ptr noundef %26)
  %27 = load ptr, ptr %3, align 8, !tbaa !22
  %28 = getelementptr inbounds nuw %struct.AudioXCorrelateContext, ptr %27, i32 0, i32 7
  call void @av_frame_free(ptr noundef %28)
  %29 = load ptr, ptr %3, align 8, !tbaa !22
  %30 = getelementptr inbounds nuw %struct.AudioXCorrelateContext, ptr %29, i32 0, i32 8
  %31 = getelementptr inbounds [2 x ptr], ptr %30, i64 0, i64 0
  call void @av_frame_free(ptr noundef %31)
  %32 = load ptr, ptr %3, align 8, !tbaa !22
  %33 = getelementptr inbounds nuw %struct.AudioXCorrelateContext, ptr %32, i32 0, i32 8
  %34 = getelementptr inbounds [2 x ptr], ptr %33, i64 0, i64 1
  call void @av_frame_free(ptr noundef %34)
  call void @llvm.lifetime.end.p0(i64 8, ptr %3) #7
  ret void
}